target datalayout = "e-m:e-p270:32:32-p271:32:32-p272:64:64-i64:64-i128:128-f80:128-n8:16:32:64-S128"
target triple = "x86_64-pc-linux-gnu"

%struct.URLContext = type { ptr, ptr, ptr, ptr, i32, i32, i32, i32, %struct.AVIOInterruptCB, i64, ptr, ptr, i32 }
%struct.AVIOInterruptCB = type { ptr, ptr }
%struct.HTTPContext = type { ptr, ptr, [8192 x i8], ptr, ptr, i32, i32, i64, i32, i64, i64, i64, ptr, ptr, %struct.HTTPAuthState, %struct.HTTPAuthState, ptr, ptr, ptr, ptr, ptr, ptr, ptr, i32, i32, i32, i32, i32, i32, ptr, i32, i32, i32, ptr, ptr, i32, i64, i64, ptr, ptr, ptr, i32, %struct.z_stream_s, ptr, ptr, i32, ptr, i32, i32, i32, i32, i32, ptr, i32, ptr, i32, i32, i32, i32, i32, i64, ptr, ptr, i64, i32, i32, i32, i32 }
%struct.HTTPAuthState = type { i32, [200 x i8], %struct.DigestParams, i32 }
%struct.DigestParams = type { [300 x i8], [10 x i8], [30 x i8], [300 x i8], [10 x i8], i32 }
%struct.z_stream_s = type { ptr, i32, i64, ptr, i32, i64, ptr, ptr, ptr, ptr, ptr, i32, i64, i64 }

@.str.120 = private unnamed_addr constant [30 x i8] c"Assertion %s failed at %s:%d\0A\00", align 1
@.str.122 = private unnamed_addr constant [19 x i8] c"libavformat/http.c\00", align 1
@.str.123 = private unnamed_addr constant [16 x i8] c"Lower protocol\0A\00", align 1
@.str.124 = private unnamed_addr constant [14 x i8] c"Read headers\0A\00", align 1
@.str.125 = private unnamed_addr constant [16 x i8] c"Reply code: %d\0A\00", align 1
@.str.126 = private unnamed_addr constant [10 x i8] c"error < 0\00", align 1

; Function Attrs: nounwind uwtable
define internal void @handle_http_errors(ptr noundef %0, i32 noundef %1) #0 {
  %3 = alloca ptr, align 8
  %4 = alloca i32, align 4
  store ptr %0, ptr %3, align 8, !tbaa !4
  store i32 %1, ptr %4, align 4, !tbaa !34
  br label %5

5:                                                ; preds = %2
  %6 = load i32, ptr %4, align 4, !tbaa !34
  %7 = icmp slt i32 %6, 0
  br i1 %7, label %9, label %8

8:                                                ; preds = %5
  call void (ptr, i32, ptr, ...) @av_log(ptr noundef null, i32 noundef 0, ptr noundef @.str.120, ptr noundef @.str.126, ptr noundef @.str.122, i32 noundef 646)
  call void @abort() #13
  unreachable

9:                                                ; preds = %5
  br label %10

10:                                               ; preds = %9
  %11 = load ptr, ptr %3, align 8, !tbaa !4
  %12 = load i32, ptr %4, align 4, !tbaa !34
  %13 = call i32 @http_write_reply(ptr noundef %11, i32 noundef %12)
  ret void
}

; Function Attrs: nounwind uwtable
define internal i32 @http_handshake(ptr noundef %0) #0 {
  %2 = alloca i32, align 4
  %3 = alloca ptr, align 8
  %4 = alloca i32, align 4
  %5 = alloca i32, align 4
  %6 = alloca ptr, align 8
  %7 = alloca ptr, align 8
  %8 = alloca i32, align 4
  store ptr %0, ptr %3, align 8, !tbaa !4
  call void @llvm.lifetime.start.p0(i64 4, ptr %4) #11
  call void @llvm.lifetime.start.p0(i64 4, ptr %5) #11
  call void @llvm.lifetime.start.p0(i64 8, ptr %6) #11
  %9 = load ptr, ptr %3, align 8, !tbaa !4
  %10 = getelementptr inbounds nuw %struct.URLContext, ptr %9, i32 0, i32 2
  %11 = load ptr, ptr %10, align 8, !tbaa !9
  store ptr %11, ptr %6, align 8, !tbaa !21
  call void @llvm.lifetime.start.p0(i64 8, ptr %7) #11
  %12 = load ptr, ptr %6, align 8, !tbaa !21
  %13 = getelementptr inbounds nuw %struct.HTTPContext, ptr %12, i32 0, i32 1
  %14 = load ptr, ptr %13, align 8, !tbaa !44
  store ptr %14, ptr %7, align 8, !tbaa !4
  %15 = load ptr, ptr %6, align 8, !tbaa !21
  %16 = getelementptr inbounds nuw %struct.HTTPContext, ptr %15, i32 0, i32 57
  %17 = load i32, ptr %16, align 8, !tbaa !69
  switch i32 %17, label %65 [
    i32 0, label %18
    i32 1, label %36
    i32 2, label %48
    i32 3, label %64
  ]

18:                                               ; preds = %1
  %19 = load ptr, ptr %3, align 8, !tbaa !4
  call void (ptr, i32, ptr, ...) @av_log(ptr noundef %19, i32 noundef 56, ptr noundef @.str.123)
  %20 = load ptr, ptr %7, align 8, !tbaa !4
  %21 = call i32 @ffurl_handshake(ptr noundef %20)
  store i32 %21, ptr %4, align 4, !tbaa !34
  %22 = icmp sgt i32 %21, 0
  br i1 %22, label %23, label %26

23:                                               ; preds = %18
  %24 = load i32, ptr %4, align 4, !tbaa !34
  %25 = add nsw i32 2, %24
  store i32 %25, ptr %2, align 4
  store i32 1, ptr %8, align 4
  br label %66

26:                                               ; preds = %18
  %27 = load i32, ptr %4, align 4, !tbaa !34
  %28 = icmp slt i32 %27, 0
  br i1 %28, label %29, label %31

29:                                               ; preds = %26
  %30 = load i32, ptr %4, align 4, !tbaa !34
  store i32 %30, ptr %2, align 4
  store i32 1, ptr %8, align 4
  br label %66

31:                                               ; preds = %26
  %32 = load ptr, ptr %6, align 8, !tbaa !21
  %33 = getelementptr inbounds nuw %struct.HTTPContext, ptr %32, i32 0, i32 57
  store i32 1, ptr %33, align 8, !tbaa !69
  %34 = load ptr, ptr %6, align 8, !tbaa !21
  %35 = getelementptr inbounds nuw %struct.HTTPContext, ptr %34, i32 0, i32 58
  store i32 1, ptr %35, align 4, !tbaa !70
  store i32 2, ptr %2, align 4
  store i32 1, ptr %8, align 4
  br label %66

36:                                               ; preds = %1
  %37 = load ptr, ptr %3, align 8, !tbaa !4
  call void (ptr, i32, ptr, ...) @av_log(ptr noundef %37, i32 noundef 56, ptr noundef @.str.124)
  %38 = load ptr, ptr %3, align 8, !tbaa !4
  %39 = call i32 @http_read_header(ptr noundef %38)
  store i32 %39, ptr %5, align 4, !tbaa !34
  %40 = icmp slt i32 %39, 0
  br i1 %40, label %41, label %45

41:                                               ; preds = %36
  %42 = load ptr, ptr %3, align 8, !tbaa !4
  %43 = load i32, ptr %5, align 4, !tbaa !34
  call void @handle_http_errors(ptr noundef %42, i32 noundef %43)
  %44 = load i32, ptr %5, align 4, !tbaa !34
  store i32 %44, ptr %2, align 4
  store i32 1, ptr %8, align 4
  br label %66

45:                                               ; preds = %36
  %46 = load ptr, ptr %6, align 8, !tbaa !21
  %47 = getelementptr inbounds nuw %struct.HTTPContext, ptr %46, i32 0, i32 57
  store i32 2, ptr %47, align 8, !tbaa !69
  store i32 1, ptr %2, align 4
  store i32 1, ptr %8, align 4
  br label %66

48:                                               ; preds = %1
  %49 = load ptr, ptr %3, align 8, !tbaa !4
  %50 = load ptr, ptr %6, align 8, !tbaa !21
  %51 = getelementptr inbounds nuw %struct.HTTPContext, ptr %50, i32 0, i32 55
  %52 = load i32, ptr %51, align 8, !tbaa !71
  call void (ptr, i32, ptr, ...) @av_log(ptr noundef %49, i32 noundef 56, ptr noundef @.str.125, i32 noundef %52)
  %53 = load ptr, ptr %3, align 8, !tbaa !4
  %54 = load ptr, ptr %6, align 8, !tbaa !21
  %55 = getelementptr inbounds nuw %struct.HTTPContext, ptr %54, i32 0, i32 55
  %56 = load i32, ptr %55, align 8, !tbaa !71
  %57 = call i32 @http_write_reply(ptr noundef %53, i32 noundef %56)
  store i32 %57, ptr %5, align 4, !tbaa !34
  %58 = icmp slt i32 %57, 0
  br i1 %58, label %59, label %61

59:                                               ; preds = %48
  %60 = load i32, ptr %5, align 4, !tbaa !34
  store i32 %60, ptr %2, align 4
  store i32 1, ptr %8, align 4
  br label %66

61:                                               ; preds = %48
  %62 = load ptr, ptr %6, align 8, !tbaa !21
  %63 = getelementptr inbounds nuw %struct.HTTPContext, ptr %62, i32 0, i32 57
  store i32 3, ptr %63, align 8, !tbaa !69
  store i32 1, ptr %2, align 4
  store i32 1, ptr %8, align 4
  br label %66

64:                                               ; preds = %1
  store i32 0, ptr %2, align 4
  store i32 1, ptr %8, align 4
  br label %66

65:                                               ; preds = %1
  store i32 -22, ptr %2, align 4
  store i32 1, ptr %8, align 4
  br label %66

66:                                               ; preds = %65, %64, %61, %59, %45, %41, %31, %29, %23
  call void @llvm.lifetime.end.p0(i64 8, ptr %7) #11
  call void @llvm.lifetime.end.p0(i64 8, ptr %6) #11
  call void @llvm.lifetime.end.p0(i64 4, ptr %5) #11
  call void @llvm.lifetime.end.p0(i64 4, ptr %4) #11
  %67 = load i32, ptr %2, align 4
  ret i32 %67
}