; Function Attrs: nounwind uwtable
define internal i32 @http_handshake(ptr noundef %0) #2 {
  %2 = getelementptr inbounds nuw i8, ptr %0, i64 16
  %3 = load ptr, ptr %2, align 8, !tbaa !4
  %4 = getelementptr inbounds nuw i8, ptr %3, i64 10392
  %5 = load i32, ptr %4, align 8, !tbaa !92
  switch i32 %5, label %30 [
    i32 0, label %6
    i32 1, label %17
    i32 2, label %23
    i32 3, label %31
  ]

6:                                                ; preds = %1
  %7 = getelementptr inbounds nuw i8, ptr %3, i64 8
  %8 = load ptr, ptr %7, align 8, !tbaa !37
  tail call void (ptr, i32, ptr, ...) @av_log(ptr noundef nonnull %0, i32 noundef 56, ptr noundef nonnull @.str.123) #15
  %9 = tail call i32 @ffurl_handshake(ptr noundef %8) #15
  %10 = icmp sgt i32 %9, 0
  br i1 %10, label %11, label %13

11:                                               ; preds = %6
  %12 = add nuw nsw i32 %9, 2
  br label %31

13:                                               ; preds = %6
  %14 = icmp slt i32 %9, 0
  br i1 %14, label %31, label %15

15:                                               ; preds = %13
  store i32 1, ptr %4, align 8, !tbaa !92
  %16 = getelementptr inbounds nuw i8, ptr %3, i64 10396
  store i32 1, ptr %16, align 4, !tbaa !98
  br label %31

17:                                               ; preds = %1
  tail call void (ptr, i32, ptr, ...) @av_log(ptr noundef nonnull %0, i32 noundef 56, ptr noundef nonnull @.str.124) #15
  %18 = tail call fastcc i32 @http_read_header(ptr noundef nonnull %0)
  %19 = icmp slt i32 %18, 0
  br i1 %19, label %20, label %22

20:                                               ; preds = %17
  %21 = tail call fastcc i32 @http_write_reply(ptr noundef nonnull %0, i32 noundef range(i32 -2147483648, 0) %18)
  br label %31

22:                                               ; preds = %17
  store i32 2, ptr %4, align 8, !tbaa !92
  br label %31

23:                                               ; preds = %1
  %24 = getelementptr inbounds nuw i8, ptr %3, i64 10384
  %25 = load i32, ptr %24, align 8, !tbaa !93
  tail call void (ptr, i32, ptr, ...) @av_log(ptr noundef nonnull %0, i32 noundef 56, ptr noundef nonnull @.str.125, i32 noundef %25) #15
  %26 = load i32, ptr %24, align 8, !tbaa !93
  %27 = tail call fastcc i32 @http_write_reply(ptr noundef nonnull %0, i32 noundef %26)
  %28 = icmp slt i32 %27, 0
  br i1 %28, label %31, label %29

29:                                               ; preds = %23
  store i32 3, ptr %4, align 8, !tbaa !92
  br label %31

30:                                               ; preds = %1
  br label %31

31:                                               ; preds = %1, %23, %13, %30, %29, %22, %20, %15, %11
  %.0 = phi i32 [ -22, %30 ], [ 1, %29 ], [ %18, %20 ], [ 1, %22 ], [ %12, %11 ], [ 2, %15 ], [ %9, %13 ], [ %27, %23 ], [ 0, %1 ]
  ret i32 %.0
}